target datalayout = "e-m:e-p270:32:32-p271:32:32-p272:64:64-i64:64-i128:128-f80:128-n8:16:32:64-S128"
target triple = "x86_64-pc-linux-gnu"

%"class.clang::Decl" = type <{ ptr, %"class.llvm::PointerIntPair", %"class.llvm::PointerUnion", %"class.clang::SourceLocation", i32, i8, [7 x i8] }>
%"class.llvm::PointerIntPair" = type { %"struct.llvm::detail::PunnedPointer" }
%"struct.llvm::detail::PunnedPointer" = type { [8 x i8] }
%"class.llvm::PointerUnion" = type { %"class.llvm::pointer_union_detail::PointerUnionMembers" }
%"class.llvm::pointer_union_detail::PointerUnionMembers" = type { %"class.llvm::pointer_union_detail::PointerUnionMembers.0" }
%"class.llvm::pointer_union_detail::PointerUnionMembers.0" = type { %"class.llvm::pointer_union_detail::PointerUnionMembers.1" }
%"class.llvm::pointer_union_detail::PointerUnionMembers.1" = type { %"class.llvm::PointerIntPair.2" }
%"class.llvm::PointerIntPair.2" = type { %"struct.llvm::detail::PunnedPointer.3" }
%"struct.llvm::detail::PunnedPointer.3" = type { [8 x i8] }
%"class.clang::SourceLocation" = type { i32 }

; Function Attrs: mustprogress nounwind uwtable
define linkonce_odr hidden noundef ptr @_ZNK5clang4Decl17getMostRecentDeclEv(ptr noundef nonnull align 8 dereferenceable(33) %0) #0 comdat align 2 {
  %2 = alloca ptr, align 8
  store ptr %0, ptr %2, align 8
  %3 = load ptr, ptr %2, align 8
  %4 = load ptr, ptr %3, align 8
  %5 = getelementptr inbounds ptr, ptr %4, i64 7
  %6 = load ptr, ptr %5, align 8
  %7 = call noundef ptr %6(ptr noundef nonnull align 8 dereferenceable(33) %3)
  ret ptr %7
}

; Function Attrs: mustprogress nounwind uwtable
define linkonce_odr hidden noundef ptr @_ZNK5clang4Decl16getCanonicalDeclEv(ptr noundef nonnull align 8 dereferenceable(33) %0) #0 comdat align 2 {
  %2 = alloca ptr, align 8
  store ptr %0, ptr %2, align 8
  %3 = load ptr, ptr %2, align 8
  %4 = load ptr, ptr %3, align 8
  %5 = getelementptr inbounds ptr, ptr %4, i64 4
  %6 = load ptr, ptr %5, align 8
  %7 = call noundef ptr %6(ptr noundef nonnull align 8 dereferenceable(33) %3)
  ret ptr %7
}

; Function Attrs: mustprogress nounwind uwtable
define dso_local noundef zeroext i1 @_ZNK5clang4Decl6isUsedEb(ptr noundef nonnull align 8 dereferenceable(33) %0, i1 noundef zeroext %1) #0 align 2 {
  %3 = alloca i1, align 1
  %4 = alloca ptr, align 8
  %5 = alloca i8, align 1
  %6 = alloca ptr, align 8
  store ptr %0, ptr %4, align 8
  %7 = zext i1 %1 to i8
  store i8 %7, ptr %5, align 1
  %8 = load ptr, ptr %4, align 8
  %9 = call noundef ptr @_ZNK5clang4Decl16getCanonicalDeclEv(ptr noundef nonnull align 8 dereferenceable(33) %8)
  store ptr %9, ptr %6, align 8
  %10 = load ptr, ptr %6, align 8
  %11 = getelementptr inbounds nuw %"class.clang::Decl", ptr %10, i32 0, i32 4
  %12 = load i32, ptr %11, align 4
  %13 = lshr i32 %12, 10
  %14 = and i32 %13, 1
  %15 = icmp ne i32 %14, 0
  br i1 %15, label %16, label %17

16:                                               ; preds = %2
  store i1 true, ptr %3, align 1
  br label %32

17:                                               ; preds = %2
  %18 = load i8, ptr %5, align 1
  %19 = trunc i8 %18 to i1
  br i1 %19, label %20, label %24

20:                                               ; preds = %17
  %21 = call noundef ptr @_ZNK5clang4Decl17getMostRecentDeclEv(ptr noundef nonnull align 8 dereferenceable(33) %8)
  %22 = call noundef zeroext i1 @_ZNK5clang4Decl7hasAttrINS_8UsedAttrEEEbv(ptr noundef nonnull align 8 dereferenceable(33) %21)
  br i1 %22, label %23, label %24

23:                                               ; preds = %20
  store i1 true, ptr %3, align 1
  br label %32

24:                                               ; preds = %20, %17
  %25 = call noundef ptr @_ZNK5clang4Decl17getMostRecentDeclEv(ptr noundef nonnull align 8 dereferenceable(33) %8)
  %26 = call noundef ptr @_ZNK5clang4Decl16getCanonicalDeclEv(ptr noundef nonnull align 8 dereferenceable(33) %25)
  %27 = getelementptr inbounds nuw %"class.clang::Decl", ptr %26, i32 0, i32 4
  %28 = load i32, ptr %27, align 4
  %29 = lshr i32 %28, 10
  %30 = and i32 %29, 1
  %31 = icmp ne i32 %30, 0
  store i1 %31, ptr %3, align 1
  br label %32

32:                                               ; preds = %24, %23, %16
  %33 = load i1, ptr %3, align 1
  ret i1 %33
}