; Function Attrs: mustprogress nounwind uwtable
define dso_local noundef zeroext i1 @_ZNK5clang4Decl6isUsedEb(ptr noundef nonnull align 8 dereferenceable(33) %0, i1 noundef zeroext %1) local_unnamed_addr #0 align 2 {
  %3 = load ptr, ptr %0, align 8
  %4 = getelementptr inbounds i8, ptr %3, i64 32
  %5 = load ptr, ptr %4, align 8
  %6 = tail call noundef ptr %5(ptr noundef nonnull align 8 dereferenceable(33) %0) #27
  %7 = getelementptr inbounds nuw i8, ptr %6, i64 28
  %8 = load i32, ptr %7, align 4
  %9 = and i32 %8, 1024
  %.not = icmp eq i32 %9, 0
  br i1 %.not, label %10, label %30

10:                                               ; preds = %2
  br i1 %1, label %11, label %17

11:                                               ; preds = %10
  %12 = load ptr, ptr %0, align 8
  %13 = getelementptr inbounds i8, ptr %12, i64 56
  %14 = load ptr, ptr %13, align 8
  %15 = tail call noundef ptr %14(ptr noundef nonnull align 8 dereferenceable(33) %0) #27
  %16 = tail call noundef zeroext i1 @_ZNK5clang4Decl7hasAttrINS_8UsedAttrEEEbv(ptr noundef nonnull align 8 dereferenceable(33) %15)
  br i1 %16, label %30, label %17

17:                                               ; preds = %11, %10
  %18 = load ptr, ptr %0, align 8
  %19 = getelementptr inbounds i8, ptr %18, i64 56
  %20 = load ptr, ptr %19, align 8
  %21 = tail call noundef ptr %20(ptr noundef nonnull align 8 dereferenceable(33) %0) #27
  %22 = load ptr, ptr %21, align 8
  %23 = getelementptr inbounds i8, ptr %22, i64 32
  %24 = load ptr, ptr %23, align 8
  %25 = tail call noundef ptr %24(ptr noundef nonnull align 8 dereferenceable(33) %21) #27
  %26 = getelementptr inbounds nuw i8, ptr %25, i64 28
  %27 = load i32, ptr %26, align 4
  %28 = and i32 %27, 1024
  %29 = icmp ne i32 %28, 0
  br label %30

30:                                               ; preds = %11, %2, %17
  %.0 = phi i1 [ %29, %17 ], [ true, %2 ], [ true, %11 ]
  ret i1 %.0
}